target datalayout = "e-m:e-p270:32:32-p271:32:32-p272:64:64-i64:64-i128:128-f80:128-n8:16:32:64-S128"
target triple = "x86_64-pc-linux-gnu"

; Function Attrs: inlinehint mustprogress nounwind uwtable
define linkonce_odr noundef float @_ZSt3expf(float noundef %0) #5 comdat {
  %2 = alloca float, align 4
  store float %0, ptr %2, align 4, !tbaa !11
  %3 = load float, ptr %2, align 4, !tbaa !11
  %4 = call float @expf(float noundef %3) #7, !tbaa !4
  ret float %4
}

; Function Attrs: mustprogress uwtable
define void @_Z11gausskernelPfif(ptr noundef %0, i32 noundef %1, float noundef %2) #0 {
  %4 = alloca ptr, align 8
  %5 = alloca i32, align 4
  %6 = alloca float, align 4
  %7 = alloca i32, align 4
  %8 = alloca i32, align 4
  %9 = alloca i32, align 4
  %10 = alloca float, align 4
  %11 = alloca float, align 4
  store ptr %0, ptr %4, align 8, !tbaa !8
  store i32 %1, ptr %5, align 4, !tbaa !4
  store float %2, ptr %6, align 4, !tbaa !11
  call void @llvm.lifetime.start.p0(i64 4, ptr %7) #7
  call void @llvm.lifetime.start.p0(i64 4, ptr %8) #7
  store i32 0, ptr %8, align 4, !tbaa !4
  call void @llvm.lifetime.start.p0(i64 4, ptr %9) #7
  call void @llvm.lifetime.start.p0(i64 4, ptr %10) #7
  call void @llvm.lifetime.start.p0(i64 4, ptr %11) #7
  store float 0.000000e+00, ptr %11, align 4, !tbaa !11
  %12 = load i32, ptr %5, align 4, !tbaa !4
  %13 = sdiv i32 %12, 2
  store i32 %13, ptr %9, align 4, !tbaa !4
  %14 = load i32, ptr %9, align 4, !tbaa !4
  %15 = sub nsw i32 0, %14
  store i32 %15, ptr %7, align 4, !tbaa !4
  br label %16

16:                                               ; preds = %38, %3
  %17 = load i32, ptr %7, align 4, !tbaa !4
  %18 = load i32, ptr %9, align 4, !tbaa !4
  %19 = icmp sle i32 %17, %18
  br i1 %19, label %20, label %41

20:                                               ; preds = %16
  %21 = load i32, ptr %7, align 4, !tbaa !4
  %22 = load i32, ptr %7, align 4, !tbaa !4
  %23 = mul nsw i32 %21, %22
  %24 = sitofp i32 %23 to float
  %25 = load float, ptr %6, align 4, !tbaa !11
  %26 = fmul float 2.000000e+00, %25
  %27 = fdiv float %24, %26
  store float %27, ptr %10, align 4, !tbaa !11
  %28 = load float, ptr %10, align 4, !tbaa !11
  %29 = fneg float %28
  %30 = call noundef float @_ZSt3expf(float noundef %29)
  %31 = load ptr, ptr %4, align 8, !tbaa !8
  %32 = load i32, ptr %8, align 4, !tbaa !4
  %33 = add nsw i32 %32, 1
  store i32 %33, ptr %8, align 4, !tbaa !4
  %34 = sext i32 %32 to i64
  %35 = getelementptr inbounds float, ptr %31, i64 %34
  store float %30, ptr %35, align 4, !tbaa !11
  %36 = load float, ptr %11, align 4, !tbaa !11
  %37 = fadd float %36, %30
  store float %37, ptr %11, align 4, !tbaa !11
  br label %38

38:                                               ; preds = %20
  %39 = load i32, ptr %7, align 4, !tbaa !4
  %40 = add nsw i32 %39, 1
  store i32 %40, ptr %7, align 4, !tbaa !4
  br label %16, !llvm.loop !29

41:                                               ; preds = %16
  store i32 0, ptr %7, align 4, !tbaa !4
  br label %42

42:                                               ; preds = %54, %41
  %43 = load i32, ptr %7, align 4, !tbaa !4
  %44 = load i32, ptr %8, align 4, !tbaa !4
  %45 = icmp slt i32 %43, %44
  br i1 %45, label %46, label %57

46:                                               ; preds = %42
  %47 = load float, ptr %11, align 4, !tbaa !11
  %48 = load ptr, ptr %4, align 8, !tbaa !8
  %49 = load i32, ptr %7, align 4, !tbaa !4
  %50 = sext i32 %49 to i64
  %51 = getelementptr inbounds float, ptr %48, i64 %50
  %52 = load float, ptr %51, align 4, !tbaa !11
  %53 = fdiv float %52, %47
  store float %53, ptr %51, align 4, !tbaa !11
  br label %54

54:                                               ; preds = %46
  %55 = load i32, ptr %7, align 4, !tbaa !4
  %56 = add nsw i32 %55, 1
  store i32 %56, ptr %7, align 4, !tbaa !4
  br label %42, !llvm.loop !30

57:                                               ; preds = %42
  call void @llvm.lifetime.end.p0(i64 4, ptr %11) #7
  call void @llvm.lifetime.end.p0(i64 4, ptr %10) #7
  call void @llvm.lifetime.end.p0(i64 4, ptr %9) #7
  call void @llvm.lifetime.end.p0(i64 4, ptr %8) #7
  call void @llvm.lifetime.end.p0(i64 4, ptr %7) #7
  ret void
}