; Function Attrs: mustprogress nofree nounwind memory(write, argmem: readwrite) uwtable
define void @_Z11gausskernelPfif(ptr noundef captures(none) %0, i32 noundef %1, float noundef %2) local_unnamed_addr #3 {
  %.not19 = icmp slt i32 %1, -1
  br i1 %.not19, label %._crit_edge, label %.lr.ph

.lr.ph:                                           ; preds = %3
  %4 = sdiv i32 %1, 2
  %5 = sub nsw i32 0, %4
  %6 = fmul float %2, 2.000000e+00
  %7 = shl nuw nsw i32 %4, 1
  %8 = or disjoint i32 %7, 1
  %wide.trip.count = zext nneg i32 %8 to i64
  br label %9

.lr.ph25.preheader:                               ; preds = %9
  %wide.trip.count31 = zext nneg i32 %8 to i64
  br label %.lr.ph25

9:                                                ; preds = %.lr.ph, %9
  %indvars.iv = phi i64 [ 0, %.lr.ph ], [ %indvars.iv.next, %9 ]
  %.022 = phi float [ 0.000000e+00, %.lr.ph ], [ %16, %9 ]
  %.01721 = phi i32 [ %5, %.lr.ph ], [ %17, %9 ]
  %10 = mul nsw i32 %.01721, %.01721
  %11 = uitofp nneg i32 %10 to float
  %12 = fneg float %11
  %13 = fdiv float %12, %6
  %14 = tail call noundef float @expf(float noundef %13) #5, !tbaa !17
  %indvars.iv.next = add nuw nsw i64 %indvars.iv, 1
  %15 = getelementptr inbounds nuw float, ptr %0, i64 %indvars.iv
  store float %14, ptr %15, align 4, !tbaa !4
  %16 = fadd float %.022, %14
  %17 = add nsw i32 %.01721, 1
  %exitcond.not = icmp eq i64 %indvars.iv.next, %wide.trip.count
  br i1 %exitcond.not, label %.lr.ph25.preheader, label %9, !llvm.loop !19

.lr.ph25:                                         ; preds = %.lr.ph25.preheader, %.lr.ph25
  %indvars.iv28 = phi i64 [ 0, %.lr.ph25.preheader ], [ %indvars.iv.next29, %.lr.ph25 ]
  %18 = getelementptr inbounds nuw float, ptr %0, i64 %indvars.iv28
  %19 = load float, ptr %18, align 4, !tbaa !4
  %20 = fdiv float %19, %16
  store float %20, ptr %18, align 4, !tbaa !4
  %indvars.iv.next29 = add nuw nsw i64 %indvars.iv28, 1
  %exitcond32.not = icmp eq i64 %indvars.iv.next29, %wide.trip.count31
  br i1 %exitcond32.not, label %._crit_edge, label %.lr.ph25, !llvm.loop !20

._crit_edge:                                      ; preds = %.lr.ph25, %3
  ret void
}